; Function Attrs: mustprogress nofree norecurse nosync nounwind willreturn memory(read, inaccessiblemem: none) uwtable
define ptr @l_Lake_BuildType_leancArgs(i8 noundef zeroext %0) local_unnamed_addr #4 {
  %2 = icmp ult i8 %0, 3
  br i1 %2, label %switch.lookup, label %4

switch.lookup:                                    ; preds = %1
  %3 = zext nneg i8 %0 to i64
  %switch.gep = getelementptr inbounds nuw [3 x ptr], ptr @switch.table.l_Lake_BuildType_leancArgs___boxed, i64 0, i64 %3
  %switch.load = load ptr, ptr %switch.gep, align 8
  br label %4

4:                                                ; preds = %1, %switch.lookup
  %.0.in = phi ptr [ %switch.load, %switch.lookup ], [ @l_Lake_BuildType_leancArgs___closed__16, %1 ]
  %.0 = load ptr, ptr %.0.in, align 8, !tbaa !10
  ret ptr %.0
}